Certificate:
    Data:
        Version: 3 (0x2)
        Serial Number: 7 (0x7)
        Signature Algorithm: sha256WithRSAEncryption
        Issuer: C=AU, ST=Australian Capital Territory, L=Canberra, O=Zeppelin Bend Pty Ltd, OU=evolve, CN=Zepben CA/emailAddress=kurt.greaves@zepben.com
        Validity
            Not Before: Nov 18 23:32:01 2019 GMT
            Not After : Apr  4 23:32:01 2047 GMT
        Subject: C=AU, ST=ACT, L=Canberra, O=Zeppelin Bend Pty Ltd, OU=evolve, CN=postbox.localdomain
        Subject Public Key Info:
            Public Key Algorithm: rsaEncryption
                RSA Public-Key: (2048 bit)
                Modulus:
                    00:97:e1:17:88:d7:b6:5a:ad:54:28:b8:30:e9:49:
                    e0:51:9d:fb:d2:0e:a1:e1:f0:4f:c3:22:65:1a:93:
                    b9:92:0a:f5:b8:12:8a:13:8a:31:f6:97:c8:37:1d:
                    4a:c2:df:79:68:62:74:0f:98:97:aa:1c:4f:3a:c1:
                    48:e1:6b:b3:a3:51:6f:fd:b6:0a:f5:fe:47:e3:35:
                    aa:26:53:e0:b6:84:64:59:0e:89:6b:5a:f6:04:40:
                    bd:fd:03:af:c1:f3:56:43:f4:ea:ff:85:29:96:b2:
                    0e:30:2d:2b:ac:a6:d0:fa:a4:71:6d:a3:1d:8b:93:
                    f0:99:1a:0b:51:b9:83:fc:99:56:2c:f3:00:ad:3e:
                    d4:6e:cd:29:3c:5b:61:8f:54:1e:ff:04:a7:ec:ac:
                    07:1a:bc:af:dc:c9:b2:77:50:90:64:c4:88:ef:17:
                    4d:05:69:b0:5a:58:40:e0:ef:40:1a:cb:cf:2e:79:
                    91:d7:53:f5:20:cb:d8:94:9b:ef:d6:45:b1:8c:93:
                    b3:68:5c:0d:e2:94:79:02:67:82:c5:46:6a:53:bd:
                    aa:08:35:a7:1f:09:92:e3:84:94:1d:b0:74:a8:06:
                    3b:93:35:55:cf:bf:dc:ae:51:e0:91:b0:1c:66:9f:
                    f4:dc:b4:fa:37:61:60:a9:c9:eb:a2:9f:45:77:b4:
                    49:13
                Exponent: 65537 (0x10001)
        X509v3 extensions:
            X509v3 Subject Key Identifier: 
                9D:08:6D:BE:79:08:C4:71:E6:AC:D8:3D:A1:0C:93:E4:2B:57:00:17
            X509v3 Authority Key Identifier: 
                keyid:D4:94:9F:A2:E8:CC:82:BD:73:76:10:24:E8:C2:2F:2A:96:75:95:85

            X509v3 Basic Constraints: 
                CA:FALSE
            X509v3 Key Usage: 
                Digital Signature, Key Encipherment
            X509v3 Extended Key Usage: 
                TLS Web Server Authentication
            X509v3 Subject Alternative Name: 
                DNS:postbox.localdomain, DNS:localhost.localdomain
    Signature Algorithm: sha256WithRSAEncryption
         58:f3:a4:f6:3f:3e:93:9a:eb:84:dc:9c:40:14:86:69:b8:06:
         0b:c9:bd:75:ba:d6:3a:df:96:8f:04:6a:a3:0a:c5:85:3b:f4:
         d3:db:f9:16:b9:c9:32:96:c8:39:cc:68:63:17:42:91:bb:c1:
         ef:cf:77:32:3d:bd:6f:fb:5a:79:64:f1:0c:54:1d:76:4c:9c:
         73:58:10:4a:55:4b:36:2a:37:8c:a4:d0:af:c5:e9:6e:0e:44:
         c5:0e:78:be:6c:a2:ad:b6:22:25:9d:6d:f1:4f:06:44:b2:39:
         55:b6:2a:cd:aa:99:c0:50:14:f6:70:60:fc:0f:b8:cf:c0:07:
         62:1f:0c:74:5c:a9:76:0c:46:be:52:64:6f:ba:ec:0e:0e:8e:
         48:8c:68:d0:c5:be:c9:bf:b1:b7:73:8b:87:be:14:9b:7d:66:
         0a:99:ef:ee:c4:6b:8d:0e:41:ba:30:a4:38:ba:a2:f1:90:b9:
         ac:b8:c6:75:36:d3:a6:6a:59:13:f4:61:68:02:14:5d:c3:60:
         da:e4:ba:f8:97:0c:95:14:0e:0a:bb:3c:2a:67:53:f7:71:dd:
         06:78:95:da:be:28:cf:fb:25:3f:48:8e:87:98:56:d0:78:58:
         dc:f7:87:0c:bd:02:ca:2c:ae:a2:aa:20:76:5f:b6:2b:74:32:
         af:4d:8f:27:e4:9c:fa:26:97:00:d9:0b:5f:8b:66:de:de:c7:
         d2:fc:a0:8f:58:cf:45:78:94:aa:5e:39:c0:b8:07:28:85:c0:
         2a:7f:6b:9d:ea:23:dd:bf:cb:5a:0a:89:f6:66:b7:03:3f:a1:
         e5:a3:3c:53:ed:97:e2:a2:da:e8:76:79:f8:90:ae:4b:b2:f8:
         0e:c9:1b:88:5e:84:d5:66:fa:f3:d4:74:02:07:ec:15:a7:5e:
         13:a6:4a:df:1e:52:71:71:69:e6:d9:1a:7a:0d:d3:4d:52:87:
         6c:8f:6a:37:35:9c:31:bc:55:0d:ed:69:90:f5:12:e9:33:d9:
         4e:5c:52:47:93:4a:c1:ce:16:60:53:69:1d:c2:c2:4d:60:3c:
         38:89:0d:74:02:44:57:c1:92:53:b4:bf:69:bf:48:1d:28:36:
         fc:d8:ee:33:34:17:a3:05:2f:28:5c:63:23:01:5d:db:54:43:
         81:30:ba:01:71:21:06:13:e7:5a:4b:9b:9b:43:1e:16:4b:4f:
         11:ec:f0:b1:2e:f6:d6:0a:06:3b:c6:3f:a5:b2:ef:3b:08:0a:
         41:f7:42:4c:4a:67:38:a4:37:47:f6:3c:3d:13:c4:04:7c:69:
         ee:0e:3e:3d:27:87:07:c7:87:5c:59:b5:21:96:7f:15:f9:ca:
         b0:43:84:9f:f1:12:d7:5a
-----BEGIN CERTIFICATE-----
MIIFVTCCAz2gAwIBAgIBBzANBgkqhkiG9w0BAQsFADCBtDELMAkGA1UEBhMCQVUx
JTAjBgNVBAgMHEF1c3RyYWxpYW4gQ2FwaXRhbCBUZXJyaXRvcnkxETAPBgNVBAcM
CENhbmJlcnJhMR4wHAYDVQQKDBVaZXBwZWxpbiBCZW5kIFB0eSBMdGQxDzANBgNV
BAsMBmV2b2x2ZTESMBAGA1UEAwwJWmVwYmVuIENBMSYwJAYJKoZIhvcNAQkBFhdr
dXJ0LmdyZWF2ZXNAemVwYmVuLmNvbTAeFw0xOTExMTgyMzMyMDFaFw00NzA0MDQy
MzMyMDFaMH0xCzAJBgNVBAYTAkFVMQwwCgYDVQQIDANBQ1QxETAPBgNVBAcMCENh
bmJlcnJhMR4wHAYDVQQKDBVaZXBwZWxpbiBCZW5kIFB0eSBMdGQxDzANBgNVBAsM
BmV2b2x2ZTEcMBoGA1UEAwwTcG9zdGJveC5sb2NhbGRvbWFpbjCCASIwDQYJKoZI
hvcNAQEBBQADggEPADCCAQoCggEBAJfhF4jXtlqtVCi4MOlJ4FGd+9IOoeHwT8Mi
ZRqTuZIK9bgSihOKMfaXyDcdSsLfeWhidA+Yl6ocTzrBSOFrs6NRb/22CvX+R+M1
qiZT4LaEZFkOiWta9gRAvf0Dr8HzVkP06v+FKZayDjAtK6ym0PqkcW2jHYuT8Jka
C1G5g/yZVizzAK0+1G7NKTxbYY9UHv8Ep+ysBxq8r9zJsndQkGTEiO8XTQVpsFpY
QODvQBrLzy55kddT9SDL2JSb79ZFsYyTs2hcDeKUeQJngsVGalO9qgg1px8JkuOE
lB2wdKgGO5M1Vc+/3K5R4JGwHGaf9Ny0+jdhYKnJ66KfRXe0SRMCAwEAAaOBpzCB
pDAdBgNVHQ4EFgQUnQhtvnkIxHHmrNg9oQyT5CtXABcwHwYDVR0jBBgwFoAU1JSf
oujMgr1zdhAk6MIvKpZ1lYUwCQYDVR0TBAIwADALBgNVHQ8EBAMCBaAwEwYDVR0l
BAwwCgYIKwYBBQUHAwEwNQYDVR0RBC4wLIITcG9zdGJveC5sb2NhbGRvbWFpboIV
bG9jYWxob3N0LmxvY2FsZG9tYWluMA0GCSqGSIb3DQEBCwUAA4ICAQBY86T2Pz6T
muuE3JxAFIZpuAYLyb11utY635aPBGqjCsWFO/TT2/kWuckylsg5zGhjF0KRu8Hv
z3cyPb1v+1p5ZPEMVB12TJxzWBBKVUs2KjeMpNCvxeluDkTFDni+bKKttiIlnW3x
TwZEsjlVtirNqpnAUBT2cGD8D7jPwAdiHwx0XKl2DEa+UmRvuuwODo5IjGjQxb7J
v7G3c4uHvhSbfWYKme/uxGuNDkG6MKQ4uqLxkLmsuMZ1NtOmalkT9GFoAhRdw2Da
5Lr4lwyVFA4KuzwqZ1P3cd0GeJXavijP+yU/SI6HmFbQeFjc94cMvQLKLK6iqiB2
X7YrdDKvTY8n5Jz6JpcA2Qtfi2be3sfS/KCPWM9FeJSqXjnAuAcohcAqf2ud6iPd
v8taCon2ZrcDP6HlozxT7Zfiotrodnn4kK5LsvgOyRuIXoTVZvrz1HQCB+wVp14T
pkrfHlJxcWnm2Rp6DdNNUodsj2o3NZwxvFUN7WmQ9RLpM9lOXFJHk0rBzhZgU2kd
wsJNYDw4iQ10AkRXwZJTtL9pv0gdKDb82O4zNBejBS8oXGMjAV3bVEOBMLoBcSEG
E+daS5ubQx4WS08R7PCxLvbWCgY7xj+lsu87CApB90JMSmc4pDdH9jw9E8QEfGnu
Dj49J4cHx4dcWbUhln8V+cqwQ4Sf8RLXWg==
-----END CERTIFICATE-----
